(i__main__
LogFile
p0
(dp1
S'_installed_files'
p2
(dp3
S'../../Simulation/DetSimV2/OPSimulator/OPSimulator'
p4
(dp5
S'../../../Simulation/DetSimV2/OPSimulator/OPSimulator/IOPSimSvc.h'
p6
S'../../../../InstallArea/include/OPSimulator/IOPSimSvc.h'
p7
sS'../../../Simulation/DetSimV2/OPSimulator/OPSimulator/IGenStep.h'
p8
S'../../../../InstallArea/include/OPSimulator/IGenStep.h'
p9
sS'../../../Simulation/DetSimV2/OPSimulator/OPSimulator/IOPSimulator.h'
p10
S'../../../../InstallArea/include/OPSimulator/IOPSimulator.h'
p11
sS'../../../Simulation/DetSimV2/OPSimulator/OPSimulator/IHit.h'
p12
S'../../../../InstallArea/include/OPSimulator/IHit.h'
p13
ssS'../../../Simulation/DetSimV2/OPSimulator/amd64_linux26/libOPSimulator.so'
p14
S'../../../../InstallArea/amd64_linux26/lib/libOPSimulator.so'
p15
ssb.