(i__main__
LogFile
p0
(dp1
S'_installed_files'
p2
(dp3
S'../../../Simulation/DetSimV2/DetSimOptions/amd64_linux26/libDetSimOptions.so'
p4
S'../../../../InstallArea/amd64_linux26/lib/libDetSimOptions.so'
p5
sS'../Examples/DetSimOptions/python'
p6
(dp7
S'../../../Examples/DetSimOptions/python/DetSimOptions/ConfAcrylic.py'
p8
S'../../../InstallArea/python/DetSimOptions/ConfAcrylic.py'
p9
sS'../../../Examples/DetSimOptions/python/DetSimOptions/__init__.py'
p10
S'../../../InstallArea/python/DetSimOptions/__init__.py'
p11
sS'../../../Examples/DetSimOptions/python/DetSimOptions/ConfTT.py'
p12
S'../../../InstallArea/python/DetSimOptions/ConfTT.py'
p13
sS'../../../Examples/DetSimOptions/python/DetSimOptions/ConfBalloon.py'
p14
S'../../../InstallArea/python/DetSimOptions/ConfBalloon.py'
p15
ssS'../Simulation/DetSimV2/DetSimOptions/python'
p16
(dp17
S'../../../Simulation/DetSimV2/DetSimOptions/python/DetSimOptions/ConfBalloon.py'
p18
S'../../../../InstallArea/python/DetSimOptions/ConfBalloon.py'
p19
sS'../../../Simulation/DetSimV2/DetSimOptions/python/DetSimOptions/ConfTT.py'
p20
S'../../../../InstallArea/python/DetSimOptions/ConfTT.py'
p21
sS'../../../Simulation/DetSimV2/DetSimOptions/python/DetSimOptions/ConfAcrylic.py'
p22
S'../../../../InstallArea/python/DetSimOptions/ConfAcrylic.py'
p23
sS'../../../Simulation/DetSimV2/DetSimOptions/python/DetSimOptions/__init__.py'
p24
S'../../../../InstallArea/python/DetSimOptions/__init__.py'
p25
ssS'../../../Examples/DetSimOptions/amd64_linux26/libDetSimOptions.so'
p26
S'../../../InstallArea/amd64_linux26/lib/libDetSimOptions.so'
p27
ssb.