(i__main__
LogFile
p0
(dp1
S'_installed_files'
p2
(dp3
S'../../Simulation/DetSimV2/MCGlobalTimeSvc/MCGlobalTimeSvc'
p4
(dp5
S'../../../Simulation/DetSimV2/MCGlobalTimeSvc/MCGlobalTimeSvc/IMCGlobalTimeSvc.h'
p6
S'../../../../InstallArea/include/MCGlobalTimeSvc/IMCGlobalTimeSvc.h'
p7
ssS'../../../Simulation/DetSimV2/MCGlobalTimeSvc/amd64_linux26/libMCGlobalTimeSvc.so'
p8
S'../../../../InstallArea/amd64_linux26/lib/libMCGlobalTimeSvc.so'
p9
ssb.